; Function Attrs: mustprogress uwtable
define void @_ZN6colvar12alch_Flambda10calc_valueEv(ptr noundef nonnull align 8 dereferenceable(1608) %0) unnamed_addr #2 align 2 {
  %2 = load ptr, ptr @_ZN12colvarmodule5proxyE, align 8, !tbaa !4
  %3 = getelementptr inbounds nuw i8, ptr %0, i64 600
  %4 = load ptr, ptr %2, align 8, !tbaa !9
  %5 = getelementptr inbounds nuw i8, ptr %4, i64 112
  %6 = load ptr, ptr %5, align 8
  %7 = tail call noundef i32 %6(ptr noundef nonnull align 8 dereferenceable(256) %2, ptr noundef nonnull %3)
  %8 = load double, ptr %3, align 8, !tbaa !90
  %9 = fneg double %8
  store double %9, ptr %3, align 8, !tbaa !90
  ret void
}